#include <math.h>
#include <stdio.h>
#include <stdlib.h>
#include <string.h>



main()
{
  int rights=0;
   int p[5];
  /* int A[5]={0,0,0,0,0};
   int B[5]={0,2,0,0,0};
   int C[5]={5,0,0,0,0};
   int D[5]={0,0,6,0,0};
   int E[5]={0,0,0,1,0};
   
   for(int k=0;k<5;k++)
   {if(p[k]==1)
   for(int i=1;1<5;i++)
   {
     for(int j=i;j<5;j++)
     { if( A[j]==p[i]&&p[i]!=0)
       rights++;
       if( B[j]==p[i]&&p[i]!=0)
       rights++;
       if( C[j]==p[i]&&p[i]!=0)
       rights++;
       if( D[j]==p[i]&&p[i]!=0)
       rights++;
       if( E[j]==p[i]&&p[i]!=0)
       rights++;
       }      
           }
   }*/
   p[0]=5;
   p[1]=2;
   p[2]=1;
   p[3]=3;
   p[4]=4;
    printf("%d %d %d %d %d",p[0],p[1],p[2],p[3],p[4]);

   } 