; ModuleID = '41/535.c'
source_filename = "41/535.c"
target datalayout = "e-m:e-p270:32:32-p271:32:32-p272:64:64-i64:64-f80:128-n8:16:32:64-S128"
target triple = "x86_64-pc-linux-gnu"

@.str = private unnamed_addr constant [15 x i8] c"%d %d %d %d %d\00", align 1

; Function Attrs: noinline nounwind uwtable
define dso_local i32 @main() #0 {
  %1 = alloca i32, align 4
  %2 = alloca [5 x i32], align 16
  store i32 0, i32* %1, align 4
  %3 = getelementptr inbounds [5 x i32], [5 x i32]* %2, i64 0, i64 0
  store i32 5, i32* %3, align 16
  %4 = getelementptr inbounds [5 x i32], [5 x i32]* %2, i64 0, i64 1
  store i32 2, i32* %4, align 4
  %5 = getelementptr inbounds [5 x i32], [5 x i32]* %2, i64 0, i64 2
  store i32 1, i32* %5, align 8
  %6 = getelementptr inbounds [5 x i32], [5 x i32]* %2, i64 0, i64 3
  store i32 3, i32* %6, align 4
  %7 = getelementptr inbounds [5 x i32], [5 x i32]* %2, i64 0, i64 4
  store i32 4, i32* %7, align 16
  %8 = getelementptr inbounds [5 x i32], [5 x i32]* %2, i64 0, i64 0
  %9 = load i32, i32* %8, align 16
  %10 = getelementptr inbounds [5 x i32], [5 x i32]* %2, i64 0, i64 1
  %11 = load i32, i32* %10, align 4
  %12 = getelementptr inbounds [5 x i32], [5 x i32]* %2, i64 0, i64 2
  %13 = load i32, i32* %12, align 8
  %14 = getelementptr inbounds [5 x i32], [5 x i32]* %2, i64 0, i64 3
  %15 = load i32, i32* %14, align 4
  %16 = getelementptr inbounds [5 x i32], [5 x i32]* %2, i64 0, i64 4
  %17 = load i32, i32* %16, align 16
  %18 = call i32 (i8*, ...) @printf(i8* getelementptr inbounds ([15 x i8], [15 x i8]* @.str, i64 0, i64 0), i32 %9, i32 %11, i32 %13, i32 %15, i32 %17)
  ret i32 0
}

declare dso_local i32 @printf(i8*, ...) #1


!llvm.module.flags = !{!0}
!llvm.ident = !{!1}

!0 = !{i32 1, !"wchar_size", i32 4}
!1 = !{!"clang version 10.0.0-4ubuntu1 "}
